target datalayout = "e-m:e-p270:32:32-p271:32:32-p272:64:64-i64:64-i128:128-f80:128-n8:16:32:64-S128"
target triple = "x86_64-pc-linux-gnu"

%"class.nla::factor" = type <{ i32, i32, i8, [3 x i8] }>
%"class.nla::factorization" = type { %class.svector.204, ptr }
%class.svector.204 = type { %class.vector.205 }
%class.vector.205 = type { ptr }
%"struct.nla::pp_fac" = type { ptr, ptr }
%"struct.nla::pp_mon" = type { ptr, ptr }
%"class.std::locale" = type { ptr }
%"class.std::ios_base" = type { ptr, i64, i64, i32, i32, i32, ptr, %"struct.std::ios_base::_Words", [8 x %"struct.std::ios_base::_Words"], i32, ptr, %"class.std::locale" }
%"struct.std::ios_base::_Words" = type { ptr, i64 }

@.str.14 = private unnamed_addr constant [2 x i8] c")\00", align 1
@.str.23 = private unnamed_addr constant [2 x i8] c"(\00", align 1
@.str.33 = private unnamed_addr constant [8 x i8] c"is_mon \00", align 1
@.str.34 = private unnamed_addr constant [2 x i8] c"*\00", align 1

; Function Attrs: inlinehint mustprogress nounwind uwtable
define linkonce_odr noundef i32 @_ZStorSt12_Ios_IostateS_(i32 noundef %0, i32 noundef %1) #8 comdat {
  %3 = alloca i32, align 4
  %4 = alloca i32, align 4
  store i32 %0, ptr %3, align 4, !tbaa !1296
  store i32 %1, ptr %4, align 4, !tbaa !1296
  %5 = load i32, ptr %3, align 4, !tbaa !1296
  %6 = load i32, ptr %4, align 4, !tbaa !1296
  %7 = or i32 %5, %6
  ret i32 %7
}

; Function Attrs: mustprogress nounwind uwtable
define available_externally noundef i32 @_ZNKSt9basic_iosIcSt11char_traitsIcEE7rdstateEv(ptr noundef nonnull align 8 dereferenceable(264) %0) #4 align 2 {
  %2 = alloca ptr, align 8
  store ptr %0, ptr %2, align 8, !tbaa !1018
  %3 = load ptr, ptr %2, align 8
  %4 = getelementptr inbounds nuw %"class.std::ios_base", ptr %3, i32 0, i32 5
  %5 = load i32, ptr %4, align 8, !tbaa !1297
  ret i32 %5
}

; Function Attrs: mustprogress nounwind uwtable
define linkonce_odr hidden void @_ZN3nla6pp_facC2ERKNS_4coreERKNS_6factorE(ptr noundef nonnull align 8 dereferenceable(16) %0, ptr noundef nonnull align 8 dereferenceable(4736) %1, ptr noundef nonnull align 4 dereferenceable(9) %2) unnamed_addr #4 comdat align 2 {
  %4 = alloca ptr, align 8
  %5 = alloca ptr, align 8
  %6 = alloca ptr, align 8
  store ptr %0, ptr %4, align 8, !tbaa !343
  store ptr %1, ptr %5, align 8, !tbaa !16
  store ptr %2, ptr %6, align 8, !tbaa !300
  %7 = load ptr, ptr %4, align 8
  %8 = getelementptr inbounds nuw %"struct.nla::pp_fac", ptr %7, i32 0, i32 0
  %9 = load ptr, ptr %5, align 8, !tbaa !16
  store ptr %9, ptr %8, align 8, !tbaa !16
  %10 = getelementptr inbounds nuw %"struct.nla::pp_fac", ptr %7, i32 0, i32 1
  %11 = load ptr, ptr %6, align 8, !tbaa !300
  store ptr %11, ptr %10, align 8, !tbaa !300
  ret void
}

; Function Attrs: mustprogress nounwind uwtable
define linkonce_odr hidden noundef nonnull align 4 dereferenceable(9) ptr @_ZNK6vectorIN3nla6factorELb0EjEixEj(ptr noundef nonnull align 8 dereferenceable(8) %0, i32 noundef %1) #4 comdat align 2 {
  %3 = alloca ptr, align 8
  %4 = alloca i32, align 4
  store ptr %0, ptr %3, align 8, !tbaa !869
  store i32 %1, ptr %4, align 4, !tbaa !8
  %5 = load ptr, ptr %3, align 8
  %6 = getelementptr inbounds nuw %class.vector.205, ptr %5, i32 0, i32 0
  %7 = load ptr, ptr %6, align 8, !tbaa !871
  %8 = load i32, ptr %4, align 4, !tbaa !8
  %9 = zext i32 %8 to i64
  %10 = getelementptr inbounds nuw %"class.nla::factor", ptr %7, i64 %9
  ret ptr %10
}

; Function Attrs: mustprogress nounwind uwtable
define linkonce_odr hidden noundef i32 @_ZNK6vectorIN3nla6factorELb0EjE4sizeEv(ptr noundef nonnull align 8 dereferenceable(8) %0) #4 comdat align 2 {
  %2 = alloca i32, align 4
  %3 = alloca ptr, align 8
  store ptr %0, ptr %3, align 8, !tbaa !869
  %4 = load ptr, ptr %3, align 8
  %5 = getelementptr inbounds nuw %class.vector.205, ptr %4, i32 0, i32 0
  %6 = load ptr, ptr %5, align 8, !tbaa !871
  %7 = icmp eq ptr %6, null
  br i1 %7, label %8, label %9

8:                                                ; preds = %1
  store i32 0, ptr %2, align 4
  br label %14

9:                                                ; preds = %1
  %10 = getelementptr inbounds nuw %class.vector.205, ptr %4, i32 0, i32 0
  %11 = load ptr, ptr %10, align 8, !tbaa !871
  %12 = getelementptr inbounds i32, ptr %11, i64 -1
  %13 = load i32, ptr %12, align 4, !tbaa !8
  store i32 %13, ptr %2, align 4
  br label %14

14:                                               ; preds = %9, %8
  %15 = load i32, ptr %2, align 4
  ret i32 %15
}

; Function Attrs: mustprogress nounwind uwtable
define linkonce_odr hidden noundef i64 @_ZNSt11char_traitsIcE6lengthEPKc(ptr noundef %0) #4 comdat align 2 {
  %2 = alloca ptr, align 8
  store ptr %0, ptr %2, align 8, !tbaa !327
  %3 = load ptr, ptr %2, align 8, !tbaa !327
  %4 = call i64 @strlen(ptr noundef %3) #3
  ret i64 %4
}

; Function Attrs: mustprogress uwtable
define available_externally void @_ZNSt9basic_iosIcSt11char_traitsIcEE8setstateESt12_Ios_Iostate(ptr noundef nonnull align 8 dereferenceable(264) %0, i32 noundef %1) #6 align 2 {
  %3 = alloca ptr, align 8
  %4 = alloca i32, align 4
  store ptr %0, ptr %3, align 8, !tbaa !1018
  store i32 %1, ptr %4, align 4, !tbaa !1296
  %5 = load ptr, ptr %3, align 8
  %6 = call noundef i32 @_ZNKSt9basic_iosIcSt11char_traitsIcEE7rdstateEv(ptr noundef nonnull align 8 dereferenceable(264) %5)
  %7 = load i32, ptr %4, align 4, !tbaa !1296
  %8 = call noundef i32 @_ZStorSt12_Ios_IostateS_(i32 noundef %6, i32 noundef %7)
  call void @_ZNSt9basic_iosIcSt11char_traitsIcEE5clearESt12_Ios_Iostate(ptr noundef nonnull align 8 dereferenceable(264) %5, i32 noundef %8)
  ret void
}

; Function Attrs: inlinehint mustprogress uwtable
define linkonce_odr hidden noundef nonnull align 8 dereferenceable(8) ptr @_ZN3nlalsERSoRKNS_6pp_facE(ptr noundef nonnull align 8 dereferenceable(8) %0, ptr noundef nonnull align 8 dereferenceable(16) %1) #9 comdat {
  %3 = alloca ptr, align 8
  %4 = alloca ptr, align 8
  store ptr %0, ptr %3, align 8, !tbaa !326
  store ptr %1, ptr %4, align 8, !tbaa !343
  %5 = load ptr, ptr %4, align 8, !tbaa !343
  %6 = getelementptr inbounds nuw %"struct.nla::pp_fac", ptr %5, i32 0, i32 0
  %7 = load ptr, ptr %6, align 8, !tbaa !345
  %8 = load ptr, ptr %4, align 8, !tbaa !343
  %9 = getelementptr inbounds nuw %"struct.nla::pp_fac", ptr %8, i32 0, i32 1
  %10 = load ptr, ptr %9, align 8, !tbaa !347
  %11 = load ptr, ptr %3, align 8, !tbaa !326
  %12 = call noundef nonnull align 8 dereferenceable(8) ptr @_ZNK3nla4core12print_factorERKNS_6factorERSo(ptr noundef nonnull align 8 dereferenceable(4736) %7, ptr noundef nonnull align 4 dereferenceable(9) %10, ptr noundef nonnull align 8 dereferenceable(8) %11)
  ret ptr %12
}

; Function Attrs: mustprogress uwtable
define linkonce_odr hidden { ptr, ptr } @_ZNK3nla4core2ppERKNS_6factorE(ptr noundef nonnull align 8 dereferenceable(4736) %0, ptr noundef nonnull align 4 dereferenceable(9) %1) #6 comdat align 2 {
  %3 = alloca %"struct.nla::pp_fac", align 8
  %4 = alloca ptr, align 8
  %5 = alloca ptr, align 8
  store ptr %0, ptr %4, align 8, !tbaa !16
  store ptr %1, ptr %5, align 8, !tbaa !300
  %6 = load ptr, ptr %4, align 8
  %7 = load ptr, ptr %5, align 8, !tbaa !300
  call void @_ZN3nla6pp_facC2ERKNS_4coreERKNS_6factorE(ptr noundef nonnull align 8 dereferenceable(16) %3, ptr noundef nonnull align 8 dereferenceable(4736) %6, ptr noundef nonnull align 4 dereferenceable(9) %7)
  %8 = load { ptr, ptr }, ptr %3, align 8
  ret { ptr, ptr } %8
}

; Function Attrs: mustprogress uwtable
define linkonce_odr hidden noundef nonnull align 4 dereferenceable(9) ptr @_ZNK3nla13factorizationixEj(ptr noundef nonnull align 8 dereferenceable(16) %0, i32 noundef %1) #6 comdat align 2 {
  %3 = alloca ptr, align 8
  %4 = alloca i32, align 4
  store ptr %0, ptr %3, align 8, !tbaa !317
  store i32 %1, ptr %4, align 4, !tbaa !8
  %5 = load ptr, ptr %3, align 8
  %6 = getelementptr inbounds nuw %"class.nla::factorization", ptr %5, i32 0, i32 0
  %7 = load i32, ptr %4, align 4, !tbaa !8
  %8 = call noundef nonnull align 4 dereferenceable(9) ptr @_ZNK6vectorIN3nla6factorELb0EjEixEj(ptr noundef nonnull align 8 dereferenceable(8) %6, i32 noundef %7)
  ret ptr %8
}

; Function Attrs: mustprogress nounwind uwtable
define linkonce_odr hidden noundef i64 @_ZNK3nla13factorization4sizeEv(ptr noundef nonnull align 8 dereferenceable(16) %0) #4 comdat align 2 {
  %2 = alloca ptr, align 8
  store ptr %0, ptr %2, align 8, !tbaa !317
  %3 = load ptr, ptr %2, align 8
  %4 = getelementptr inbounds nuw %"class.nla::factorization", ptr %3, i32 0, i32 0
  %5 = call noundef i32 @_ZNK6vectorIN3nla6factorELb0EjE4sizeEv(ptr noundef nonnull align 8 dereferenceable(8) %4)
  %6 = zext i32 %5 to i64
  ret i64 %6
}

; Function Attrs: inlinehint mustprogress uwtable
define linkonce_odr hidden noundef nonnull align 8 dereferenceable(8) ptr @_ZN3nlalsERSoRKNS_6pp_monE(ptr noundef nonnull align 8 dereferenceable(8) %0, ptr noundef nonnull align 8 dereferenceable(16) %1) #9 comdat {
  %3 = alloca ptr, align 8
  %4 = alloca ptr, align 8
  store ptr %0, ptr %3, align 8, !tbaa !326
  store ptr %1, ptr %4, align 8, !tbaa !423
  %5 = load ptr, ptr %4, align 8, !tbaa !423
  %6 = getelementptr inbounds nuw %"struct.nla::pp_mon", ptr %5, i32 0, i32 0
  %7 = load ptr, ptr %6, align 8, !tbaa !425
  %8 = load ptr, ptr %4, align 8, !tbaa !423
  %9 = getelementptr inbounds nuw %"struct.nla::pp_mon", ptr %8, i32 0, i32 1
  %10 = load ptr, ptr %9, align 8, !tbaa !427
  %11 = load ptr, ptr %3, align 8, !tbaa !326
  %12 = call noundef nonnull align 8 dereferenceable(8) ptr @_ZNK3nla4core11print_monicERKNS_5monicERSo(ptr noundef nonnull align 8 dereferenceable(4736) %7, ptr noundef nonnull align 8 dereferenceable(34) %10, ptr noundef nonnull align 8 dereferenceable(8) %11)
  ret ptr %12
}

; Function Attrs: mustprogress nounwind uwtable
define linkonce_odr hidden void @_ZN3nla6pp_monC2ERKNS_4coreERKNS_5monicE(ptr noundef nonnull align 8 dereferenceable(16) %0, ptr noundef nonnull align 8 dereferenceable(4736) %1, ptr noundef nonnull align 8 dereferenceable(34) %2) unnamed_addr #4 comdat align 2 {
  %4 = alloca ptr, align 8
  %5 = alloca ptr, align 8
  %6 = alloca ptr, align 8
  store ptr %0, ptr %4, align 8, !tbaa !423
  store ptr %1, ptr %5, align 8, !tbaa !16
  store ptr %2, ptr %6, align 8, !tbaa !310
  %7 = load ptr, ptr %4, align 8
  %8 = getelementptr inbounds nuw %"struct.nla::pp_mon", ptr %7, i32 0, i32 0
  %9 = load ptr, ptr %5, align 8, !tbaa !16
  store ptr %9, ptr %8, align 8, !tbaa !16
  %10 = getelementptr inbounds nuw %"struct.nla::pp_mon", ptr %7, i32 0, i32 1
  %11 = load ptr, ptr %6, align 8, !tbaa !310
  store ptr %11, ptr %10, align 8, !tbaa !310
  ret void
}

; Function Attrs: mustprogress nounwind uwtable
define linkonce_odr hidden noundef nonnull align 8 dereferenceable(34) ptr @_ZNK3nla13factorization3monEv(ptr noundef nonnull align 8 dereferenceable(16) %0) #4 comdat align 2 {
  %2 = alloca ptr, align 8
  store ptr %0, ptr %2, align 8, !tbaa !317
  %3 = load ptr, ptr %2, align 8
  %4 = getelementptr inbounds nuw %"class.nla::factorization", ptr %3, i32 0, i32 1
  %5 = load ptr, ptr %4, align 8, !tbaa !419
  ret ptr %5
}

; Function Attrs: inlinehint mustprogress uwtable
define available_externally noundef nonnull align 8 dereferenceable(8) ptr @_ZStlsISt11char_traitsIcEERSt13basic_ostreamIcT_ES5_PKc(ptr noundef nonnull align 8 dereferenceable(8) %0, ptr noundef %1) #9 {
  %3 = alloca ptr, align 8
  %4 = alloca ptr, align 8
  store ptr %0, ptr %3, align 8, !tbaa !326
  store ptr %1, ptr %4, align 8, !tbaa !327
  %5 = load ptr, ptr %4, align 8, !tbaa !327
  %6 = icmp ne ptr %5, null
  br i1 %6, label %13, label %7

7:                                                ; preds = %2
  %8 = load ptr, ptr %3, align 8, !tbaa !326
  %9 = load ptr, ptr %8, align 8, !tbaa !328
  %10 = getelementptr i8, ptr %9, i64 -24
  %11 = load i64, ptr %10, align 8
  %12 = getelementptr inbounds i8, ptr %8, i64 %11
  call void @_ZNSt9basic_iosIcSt11char_traitsIcEE8setstateESt12_Ios_Iostate(ptr noundef nonnull align 8 dereferenceable(264) %12, i32 noundef 1)
  br label %19

13:                                               ; preds = %2
  %14 = load ptr, ptr %3, align 8, !tbaa !326
  %15 = load ptr, ptr %4, align 8, !tbaa !327
  %16 = load ptr, ptr %4, align 8, !tbaa !327
  %17 = call noundef i64 @_ZNSt11char_traitsIcE6lengthEPKc(ptr noundef %16)
  %18 = call noundef nonnull align 8 dereferenceable(8) ptr @_ZSt16__ostream_insertIcSt11char_traitsIcEERSt13basic_ostreamIT_T0_ES6_PKS3_l(ptr noundef nonnull align 8 dereferenceable(8) %14, ptr noundef %15, i64 noundef %17)
  br label %19

19:                                               ; preds = %13, %7
  %20 = load ptr, ptr %3, align 8, !tbaa !326
  ret ptr %20
}

; Function Attrs: mustprogress nounwind uwtable
define linkonce_odr hidden noundef zeroext i1 @_ZNK3nla13factorization6is_monEv(ptr noundef nonnull align 8 dereferenceable(16) %0) #4 comdat align 2 {
  %2 = alloca ptr, align 8
  store ptr %0, ptr %2, align 8, !tbaa !317
  %3 = load ptr, ptr %2, align 8
  %4 = getelementptr inbounds nuw %"class.nla::factorization", ptr %3, i32 0, i32 1
  %5 = load ptr, ptr %4, align 8, !tbaa !419
  %6 = icmp ne ptr %5, null
  ret i1 %6
}

; Function Attrs: mustprogress uwtable
define hidden noundef nonnull align 8 dereferenceable(8) ptr @_ZNK3nla4core19print_factorizationERKNS_13factorizationERSo(ptr noundef nonnull align 8 dereferenceable(4736) %0, ptr noundef nonnull align 8 dereferenceable(16) %1, ptr noundef nonnull align 8 dereferenceable(8) %2) #6 align 2 {
  %4 = alloca ptr, align 8
  %5 = alloca ptr, align 8
  %6 = alloca ptr, align 8
  %7 = alloca %"struct.nla::pp_mon", align 8
  %8 = alloca i32, align 4
  %9 = alloca %"struct.nla::pp_fac", align 8
  store ptr %0, ptr %4, align 8, !tbaa !16
  store ptr %1, ptr %5, align 8, !tbaa !317
  store ptr %2, ptr %6, align 8, !tbaa !326
  %10 = load ptr, ptr %4, align 8
  %11 = load ptr, ptr %5, align 8, !tbaa !317
  %12 = call noundef zeroext i1 @_ZNK3nla13factorization6is_monEv(ptr noundef nonnull align 8 dereferenceable(16) %11)
  br i1 %12, label %13, label %19

13:                                               ; preds = %3
  %14 = load ptr, ptr %6, align 8, !tbaa !326
  %15 = call noundef nonnull align 8 dereferenceable(8) ptr @_ZStlsISt11char_traitsIcEERSt13basic_ostreamIcT_ES5_PKc(ptr noundef nonnull align 8 dereferenceable(8) %14, ptr noundef @.str.33)
  call void @llvm.lifetime.start.p0(i64 16, ptr %7) #3
  %16 = load ptr, ptr %5, align 8, !tbaa !317
  %17 = call noundef nonnull align 8 dereferenceable(34) ptr @_ZNK3nla13factorization3monEv(ptr noundef nonnull align 8 dereferenceable(16) %16)
  call void @_ZN3nla6pp_monC2ERKNS_4coreERKNS_5monicE(ptr noundef nonnull align 8 dereferenceable(16) %7, ptr noundef nonnull align 8 dereferenceable(4736) %10, ptr noundef nonnull align 8 dereferenceable(34) %17)
  %18 = call noundef nonnull align 8 dereferenceable(8) ptr @_ZN3nlalsERSoRKNS_6pp_monE(ptr noundef nonnull align 8 dereferenceable(8) %15, ptr noundef nonnull align 8 dereferenceable(16) %7)
  call void @llvm.lifetime.end.p0(i64 16, ptr %7) #3
  br label %54

19:                                               ; preds = %3
  call void @llvm.lifetime.start.p0(i64 4, ptr %8) #3
  store i32 0, ptr %8, align 4, !tbaa !8
  br label %20

20:                                               ; preds = %50, %19
  %21 = load i32, ptr %8, align 4, !tbaa !8
  %22 = zext i32 %21 to i64
  %23 = load ptr, ptr %5, align 8, !tbaa !317
  %24 = call noundef i64 @_ZNK3nla13factorization4sizeEv(ptr noundef nonnull align 8 dereferenceable(16) %23)
  %25 = icmp ult i64 %22, %24
  br i1 %25, label %27, label %26

26:                                               ; preds = %20
  call void @llvm.lifetime.end.p0(i64 4, ptr %8) #3
  br label %53

27:                                               ; preds = %20
  %28 = load ptr, ptr %6, align 8, !tbaa !326
  %29 = call noundef nonnull align 8 dereferenceable(8) ptr @_ZStlsISt11char_traitsIcEERSt13basic_ostreamIcT_ES5_PKc(ptr noundef nonnull align 8 dereferenceable(8) %28, ptr noundef @.str.23)
  call void @llvm.lifetime.start.p0(i64 16, ptr %9) #3
  %30 = load ptr, ptr %5, align 8, !tbaa !317
  %31 = load i32, ptr %8, align 4, !tbaa !8
  %32 = call noundef nonnull align 4 dereferenceable(9) ptr @_ZNK3nla13factorizationixEj(ptr noundef nonnull align 8 dereferenceable(16) %30, i32 noundef %31)
  %33 = call { ptr, ptr } @_ZNK3nla4core2ppERKNS_6factorE(ptr noundef nonnull align 8 dereferenceable(4736) %10, ptr noundef nonnull align 4 dereferenceable(9) %32)
  %34 = getelementptr inbounds nuw { ptr, ptr }, ptr %9, i32 0, i32 0
  %35 = extractvalue { ptr, ptr } %33, 0
  store ptr %35, ptr %34, align 8
  %36 = getelementptr inbounds nuw { ptr, ptr }, ptr %9, i32 0, i32 1
  %37 = extractvalue { ptr, ptr } %33, 1
  store ptr %37, ptr %36, align 8
  %38 = call noundef nonnull align 8 dereferenceable(8) ptr @_ZN3nlalsERSoRKNS_6pp_facE(ptr noundef nonnull align 8 dereferenceable(8) %29, ptr noundef nonnull align 8 dereferenceable(16) %9)
  %39 = call noundef nonnull align 8 dereferenceable(8) ptr @_ZStlsISt11char_traitsIcEERSt13basic_ostreamIcT_ES5_PKc(ptr noundef nonnull align 8 dereferenceable(8) %38, ptr noundef @.str.14)
  call void @llvm.lifetime.end.p0(i64 16, ptr %9) #3
  %40 = load i32, ptr %8, align 4, !tbaa !8
  %41 = zext i32 %40 to i64
  %42 = load ptr, ptr %5, align 8, !tbaa !317
  %43 = call noundef i64 @_ZNK3nla13factorization4sizeEv(ptr noundef nonnull align 8 dereferenceable(16) %42)
  %44 = sub i64 %43, 1
  %45 = icmp ult i64 %41, %44
  br i1 %45, label %46, label %49

46:                                               ; preds = %27
  %47 = load ptr, ptr %6, align 8, !tbaa !326
  %48 = call noundef nonnull align 8 dereferenceable(8) ptr @_ZStlsISt11char_traitsIcEERSt13basic_ostreamIcT_ES5_PKc(ptr noundef nonnull align 8 dereferenceable(8) %47, ptr noundef @.str.34)
  br label %49

49:                                               ; preds = %46, %27
  br label %50

50:                                               ; preds = %49
  %51 = load i32, ptr %8, align 4, !tbaa !8
  %52 = add i32 %51, 1
  store i32 %52, ptr %8, align 4, !tbaa !8
  br label %20, !llvm.loop !418

53:                                               ; preds = %26
  br label %54

54:                                               ; preds = %53, %13
  %55 = load ptr, ptr %6, align 8, !tbaa !326
  ret ptr %55
}