; Function Attrs: mustprogress uwtable
define hidden noundef nonnull align 8 dereferenceable(8) ptr @_ZNK3nla4core19print_factorizationERKNS_13factorizationERSo(ptr noundef nonnull align 8 dereferenceable(4736) %0, ptr noundef nonnull readonly align 8 captures(none) dereferenceable(16) %1, ptr noundef nonnull returned align 8 dereferenceable(8) %2) local_unnamed_addr #4 align 2 {
  %4 = getelementptr inbounds nuw i8, ptr %1, i64 8
  %5 = load ptr, ptr %4, align 8, !tbaa !444
  %.not = icmp eq ptr %5, null
  br i1 %.not, label %.preheader, label %8

.preheader:                                       ; preds = %3
  %6 = load ptr, ptr %1, align 8, !tbaa !300
  %7 = icmp eq ptr %6, null
  br i1 %7, label %_ZNK3nla13factorization4sizeEv.exit.thread, label %_ZNK3nla13factorization4sizeEv.exit

8:                                                ; preds = %3
  %9 = tail call noundef nonnull align 8 dereferenceable(8) ptr @_ZSt16__ostream_insertIcSt11char_traitsIcEERSt13basic_ostreamIT_T0_ES6_PKS3_l(ptr noundef nonnull align 8 dereferenceable(8) %2, ptr noundef nonnull @.str.33, i64 noundef 7)
  %10 = load ptr, ptr %4, align 8, !tbaa !444
  %11 = tail call noundef nonnull align 8 dereferenceable(8) ptr @_ZNK3nla4core11print_monicERKNS_5monicERSo(ptr noundef nonnull align 8 dereferenceable(4736) %0, ptr noundef nonnull align 8 dereferenceable(34) %10, ptr noundef nonnull align 8 dereferenceable(8) %2)
  br label %_ZNK3nla13factorization4sizeEv.exit.thread

_ZNK3nla13factorization4sizeEv.exit:              ; preds = %.preheader, %31
  %12 = phi ptr [ %32, %31 ], [ %6, %.preheader ]
  %13 = phi i64 [ %34, %31 ], [ 0, %.preheader ]
  %.019 = phi i32 [ %33, %31 ], [ 0, %.preheader ]
  %14 = getelementptr inbounds i8, ptr %12, i64 -4
  %15 = load i32, ptr %14, align 4, !tbaa !249
  %16 = icmp ugt i32 %15, %.019
  br i1 %16, label %17, label %_ZNK3nla13factorization4sizeEv.exit.thread

17:                                               ; preds = %_ZNK3nla13factorization4sizeEv.exit
  %18 = tail call noundef nonnull align 8 dereferenceable(8) ptr @_ZSt16__ostream_insertIcSt11char_traitsIcEERSt13basic_ostreamIT_T0_ES6_PKS3_l(ptr noundef nonnull align 8 dereferenceable(8) %2, ptr noundef nonnull @.str.23, i64 noundef 1)
  %19 = load ptr, ptr %1, align 8, !tbaa !300
  %20 = getelementptr inbounds nuw %"class.nla::factor", ptr %19, i64 %13
  %21 = tail call noundef nonnull align 8 dereferenceable(8) ptr @_ZNK3nla4core12print_factorERKNS_6factorERSo(ptr noundef nonnull align 8 dereferenceable(4736) %0, ptr noundef nonnull align 4 dereferenceable(9) %20, ptr noundef nonnull align 8 dereferenceable(8) %2)
  %22 = tail call noundef nonnull align 8 dereferenceable(8) ptr @_ZSt16__ostream_insertIcSt11char_traitsIcEERSt13basic_ostreamIT_T0_ES6_PKS3_l(ptr noundef nonnull align 8 dereferenceable(8) %2, ptr noundef nonnull @.str.14, i64 noundef 1)
  %23 = load ptr, ptr %1, align 8, !tbaa !300
  %24 = icmp eq ptr %23, null
  br i1 %24, label %_ZNK3nla13factorization4sizeEv.exit15.thread, label %_ZNK3nla13factorization4sizeEv.exit15

_ZNK3nla13factorization4sizeEv.exit15:            ; preds = %17
  %25 = getelementptr inbounds i8, ptr %23, i64 -4
  %26 = load i32, ptr %25, align 4, !tbaa !249
  %27 = zext i32 %26 to i64
  %28 = add nsw i64 %27, -1
  %29 = icmp ugt i64 %28, %13
  br i1 %29, label %_ZNK3nla13factorization4sizeEv.exit15.thread, label %31

_ZNK3nla13factorization4sizeEv.exit15.thread:     ; preds = %17, %_ZNK3nla13factorization4sizeEv.exit15
  %30 = tail call noundef nonnull align 8 dereferenceable(8) ptr @_ZSt16__ostream_insertIcSt11char_traitsIcEERSt13basic_ostreamIT_T0_ES6_PKS3_l(ptr noundef nonnull align 8 dereferenceable(8) %2, ptr noundef nonnull @.str.34, i64 noundef 1)
  %.pre = load ptr, ptr %1, align 8, !tbaa !300
  br label %31

31:                                               ; preds = %_ZNK3nla13factorization4sizeEv.exit15, %_ZNK3nla13factorization4sizeEv.exit15.thread
  %32 = phi ptr [ %23, %_ZNK3nla13factorization4sizeEv.exit15 ], [ %.pre, %_ZNK3nla13factorization4sizeEv.exit15.thread ]
  %33 = add nuw i32 %.019, 1
  %34 = zext i32 %33 to i64
  %35 = icmp eq ptr %32, null
  br i1 %35, label %_ZNK3nla13factorization4sizeEv.exit.thread, label %_ZNK3nla13factorization4sizeEv.exit, !llvm.loop !447

_ZNK3nla13factorization4sizeEv.exit.thread:       ; preds = %_ZNK3nla13factorization4sizeEv.exit, %31, %.preheader, %8
  ret ptr %2
}